ARM GAS  /tmp/ccgJqYU2.s 			page 1


   1              		.cpu cortex-m7
   2              		.eabi_attribute 28, 1
   3              		.eabi_attribute 20, 1
   4              		.eabi_attribute 21, 1
   5              		.eabi_attribute 23, 3
   6              		.eabi_attribute 24, 1
   7              		.eabi_attribute 25, 1
   8              		.eabi_attribute 26, 1
   9              		.eabi_attribute 30, 2
  10              		.eabi_attribute 34, 1
  11              		.eabi_attribute 18, 4
  12              		.file	"main.cpp"
  13              		.text
  14              		.section	.text._ZN5daisy10DaisyFieldD2Ev,"axG",%progbits,_ZN5daisy10DaisyFieldD5Ev,comdat
  15              		.align	1
  16              		.p2align 2,,3
  17              		.weak	_ZN5daisy10DaisyFieldD2Ev
  18              		.arch armv7e-m
  19              		.syntax unified
  20              		.thumb
  21              		.thumb_func
  22              		.fpu fpv5-d16
  24              	_ZN5daisy10DaisyFieldD2Ev:
  25              		@ args = 0, pretend = 0, frame = 0
  26              		@ frame_needed = 0, uses_anonymous_args = 0
  27              		@ link register save eliminated.
  28 0000 7047     		bx	lr
  30              		.weak	_ZN5daisy10DaisyFieldD1Ev
  31              		.thumb_set _ZN5daisy10DaisyFieldD1Ev,_ZN5daisy10DaisyFieldD2Ev
  32 0002 00BF     		.section	.text._ZN5daisy16LedDriverPca9685ILi2ELb1EE14TxCpltCallbackEPvNS_9I2CHandle6ResultE,"axG"
  33              		.align	1
  34              		.p2align 2,,3
  35              		.weak	_ZN5daisy16LedDriverPca9685ILi2ELb1EE14TxCpltCallbackEPvNS_9I2CHandle6ResultE
  36              		.syntax unified
  37              		.thumb
  38              		.thumb_func
  39              		.fpu fpv5-d16
  41              	_ZN5daisy16LedDriverPca9685ILi2ELb1EE14TxCpltCallbackEPvNS_9I2CHandle6ResultE:
  42              		@ args = 0, pretend = 0, frame = 0
  43              		@ frame_needed = 0, uses_anonymous_args = 0
  44 0000 30B5     		push	{r4, r5, lr}
  45 0002 027D     		ldrb	r2, [r0, #20]	@ zero_extendqisi2
  46 0004 83B0     		sub	sp, sp, #12
  47 0006 0446     		mov	r4, r0
  48 0008 0132     		adds	r2, r2, #1
  49 000a 52B2     		sxtb	r2, r2
  50 000c 012A     		cmp	r2, #1
  51 000e 0275     		strb	r2, [r0, #20]
  52 0010 03DD     		ble	.L4
  53 0012 FF23     		movs	r3, #255
  54 0014 0375     		strb	r3, [r0, #20]
  55              	.L3:
  56 0016 03B0     		add	sp, sp, #12
  57              		@ sp needed
  58 0018 30BD     		pop	{r4, r5, pc}
  59              	.L4:
  60 001a 8568     		ldr	r5, [r0, #8]
ARM GAS  /tmp/ccgJqYU2.s 			page 2


  61 001c 8118     		adds	r1, r0, r2
  62 001e 02EB8212 		add	r2, r2, r2, lsl #6
  63 0022 4123     		movs	r3, #65
  64 0024 097B     		ldrb	r1, [r1, #12]	@ zero_extendqisi2
  65 0026 2A44     		add	r2, r2, r5
  66 0028 094D     		ldr	r5, .L10
  67 002a 41F04001 		orr	r1, r1, #64
  68 002e 0190     		str	r0, [sp, #4]
  69 0030 0095     		str	r5, [sp]
  70 0032 FFF7FEFF 		bl	_ZN5daisy9I2CHandle11TransmitDmaEtPhtPFvPvNS0_6ResultEES2_
  71 0036 0028     		cmp	r0, #0
  72 0038 EDD0     		beq	.L3
  73 003a 2046     		mov	r0, r4
  74 003c FFF7FEFF 		bl	_ZNK5daisy9I2CHandle9GetConfigEv
  75 0040 0146     		mov	r1, r0
  76 0042 2046     		mov	r0, r4
  77 0044 03B0     		add	sp, sp, #12
  78              		@ sp needed
  79 0046 BDE83040 		pop	{r4, r5, lr}
  80 004a FFF7FEBF 		b	_ZN5daisy9I2CHandle4InitERKNS0_6ConfigE
  81              	.L11:
  82 004e 00BF     		.align	2
  83              	.L10:
  84 0050 00000000 		.word	_ZN5daisy16LedDriverPca9685ILi2ELb1EE14TxCpltCallbackEPvNS_9I2CHandle6ResultE
  86              		.section	.text._Z8hardClipf,"ax",%progbits
  87              		.align	1
  88              		.p2align 2,,3
  89              		.global	_Z8hardClipf
  90              		.syntax unified
  91              		.thumb
  92              		.thumb_func
  93              		.fpu fpv5-d16
  95              	_Z8hardClipf:
  96              		@ args = 0, pretend = 0, frame = 0
  97              		@ frame_needed = 0, uses_anonymous_args = 0
  98              		@ link register save eliminated.
  99 0000 F7EE007A 		vmov.f32	s15, #1.0e+0
 100 0004 B4EEE70A 		vcmpe.f32	s0, s15
 101 0008 F1EE10FA 		vmrs	APSR_nzcv, FPSCR
 102 000c 02DD     		ble	.L16
 103 000e B0EE670A 		vmov.f32	s0, s15
 104 0012 7047     		bx	lr
 105              	.L16:
 106 0014 BFEE007A 		vmov.f32	s14, #-1.0e+0
 107 0018 B4EEC70A 		vcmpe.f32	s0, s14
 108 001c F1EE10FA 		vmrs	APSR_nzcv, FPSCR
 109 0020 48BF     		it	mi
 110 0022 B0EE470A 		vmovmi.f32	s0, s14
 111 0026 7047     		bx	lr
 113              		.section	.text._Z8softClipf,"ax",%progbits
 114              		.align	1
 115              		.p2align 2,,3
 116              		.global	_Z8softClipf
 117              		.syntax unified
 118              		.thumb
 119              		.thumb_func
 120              		.fpu fpv5-d16
ARM GAS  /tmp/ccgJqYU2.s 			page 3


 122              	_Z8softClipf:
 123              		@ args = 0, pretend = 0, frame = 0
 124              		@ frame_needed = 0, uses_anonymous_args = 0
 125 0000 B5EEC00A 		vcmpe.f32	s0, #0
 126 0004 08B5     		push	{r3, lr}
 127 0006 F1EE10FA 		vmrs	APSR_nzcv, FPSCR
 128 000a 08DD     		ble	.L22
 129 000c B1EE400A 		vneg.f32	s0, s0
 130 0010 FFF7FEFF 		bl	expf
 131 0014 F7EE007A 		vmov.f32	s15, #1.0e+0
 132 0018 37EEC00A 		vsub.f32	s0, s15, s0
 133 001c 08BD     		pop	{r3, pc}
 134              	.L22:
 135 001e FFF7FEFF 		bl	expf
 136 0022 F7EE007A 		vmov.f32	s15, #1.0e+0
 137 0026 30EE670A 		vsub.f32	s0, s0, s15
 138 002a 08BD     		pop	{r3, pc}
 140              		.section	.text._ZL13AudioCallbackPPfS0_j,"ax",%progbits
 141              		.align	1
 142              		.p2align 2,,3
 143              		.syntax unified
 144              		.thumb
 145              		.thumb_func
 146              		.fpu fpv5-d16
 148              	_ZL13AudioCallbackPPfS0_j:
 149              		@ args = 0, pretend = 0, frame = 16
 150              		@ frame_needed = 0, uses_anonymous_args = 0
 151 0000 2DE9F04F 		push	{r4, r5, r6, r7, r8, r9, r10, fp, lr}
 152 0004 2DED048B 		vpush.64	{d8, d9}
 153 0008 85B0     		sub	sp, sp, #20
 154 000a 8046     		mov	r8, r0
 155 000c 7248     		ldr	r0, .L52+8
 156 000e 0F46     		mov	r7, r1
 157 0010 0192     		str	r2, [sp, #4]
 158 0012 FFF7FEFF 		bl	_ZN5daisy13AnalogControl7ProcessEv
 159 0016 7148     		ldr	r0, .L52+12
 160 0018 0026     		movs	r6, #0
 161 001a FFF7FEFF 		bl	_ZN5daisy13AnalogControl7ProcessEv
 162 001e 7048     		ldr	r0, .L52+16
 163 0020 FFF7FEFF 		bl	_ZN5daisy13AnalogControl7ProcessEv
 164 0024 6F48     		ldr	r0, .L52+20
 165 0026 FFF7FEFF 		bl	_ZN5daisy13AnalogControl7ProcessEv
 166 002a 6F48     		ldr	r0, .L52+24
 167 002c FFF7FEFF 		bl	_ZN5daisy13AnalogControl7ProcessEv
 168 0030 6E48     		ldr	r0, .L52+28
 169 0032 FFF7FEFF 		bl	_ZN5daisy13AnalogControl7ProcessEv
 170 0036 6E48     		ldr	r0, .L52+32
 171 0038 FFF7FEFF 		bl	_ZN5daisy13AnalogControl7ProcessEv
 172 003c 6D48     		ldr	r0, .L52+36
 173 003e FFF7FEFF 		bl	_ZN5daisy13AnalogControl7ProcessEv
 174 0042 6D48     		ldr	r0, .L52+40
 175 0044 FFF7FEFF 		bl	_ZN5daisy13AnalogControl7ProcessEv
 176 0048 6C48     		ldr	r0, .L52+44
 177 004a FFF7FEFF 		bl	_ZN5daisy13AnalogControl7ProcessEv
 178 004e 6C48     		ldr	r0, .L52+48
 179 0050 FFF7FEFF 		bl	_ZN5daisy13AnalogControl7ProcessEv
 180 0054 6B48     		ldr	r0, .L52+52
ARM GAS  /tmp/ccgJqYU2.s 			page 4


 181 0056 FFF7FEFF 		bl	_ZN5daisy13AnalogControl7ProcessEv
 182 005a 6B48     		ldr	r0, .L52+56
 183 005c FFF7FEFF 		bl	_ZN5daisy6Switch8DebounceEv
 184 0060 6A48     		ldr	r0, .L52+60
 185 0062 FFF7FEFF 		bl	_ZN5daisy6Switch8DebounceEv
 186 0066 6A48     		ldr	r0, .L52+64
 187 0068 FFF7FEFF 		bl	dsy_sr_4021_update
 188 006c 694D     		ldr	r5, .L52+68
 189 006e 3346     		mov	r3, r6
 190 0070 03E0     		b	.L25
 191              	.L27:
 192 0072 072E     		cmp	r6, #7
 193 0074 8CBF     		ite	hi
 194 0076 0823     		movhi	r3, #8
 195 0078 0023     		movls	r3, #0
 196              	.L25:
 197 007a F1B2     		uxtb	r1, r6
 198 007c 6448     		ldr	r0, .L52+64
 199 007e 0136     		adds	r6, r6, #1
 200 0080 CC43     		mvns	r4, r1
 201 0082 04F00704 		and	r4, r4, #7
 202 0086 1C44     		add	r4, r4, r3
 203 0088 FFF7FEFF 		bl	dsy_sr_4021_state
 204 008c 102E     		cmp	r6, #16
 205 008e 05EB0403 		add	r3, r5, r4
 206 0092 93F8F423 		ldrb	r2, [r3, #1012]	@ zero_extendqisi2
 207 0096 40EA4200 		orr	r0, r0, r2, lsl #1
 208 009a 83F8F403 		strb	r0, [r3, #1012]
 209 009e E8D1     		bne	.L27
 210 00a0 5D48     		ldr	r0, .L52+72
 211 00a2 FFF7FEFF 		bl	_ZN5daisy6GateIn4TrigEv
 212 00a6 F2EE046A 		vmov.f32	s13, #1.0e+1
 213 00aa DFED5C7A 		vldr.32	s15, .L52+76
 214 00ae 95EDAC7A 		vldr.32	s14, [r5, #688]
 215 00b2 95EDB36A 		vldr.32	s12, [r5, #716]
 216 00b6 95F85D32 		ldrb	r3, [r5, #605]	@ zero_extendqisi2
 217 00ba 27EE267A 		vmul.f32	s14, s14, s13
 218 00be DFF860A1 		ldr	r10, .L52+80
 219 00c2 26EE276A 		vmul.f32	s12, s12, s15
 220 00c6 7F2B     		cmp	r3, #127
 221 00c8 DFF85891 		ldr	r9, .L52+84
 222 00cc 9AF80010 		ldrb	r1, [r10]	@ zero_extendqisi2
 223 00d0 B7EEC77A 		vcvt.f64.f32	d7, s14
 224 00d4 95F86D32 		ldrb	r3, [r5, #621]	@ zero_extendqisi2
 225 00d8 B7EEC66A 		vcvt.f64.f32	d6, s12
 226 00dc 08BF     		it	eq
 227 00de 81F00101 		eoreq	r1, r1, #1
 228 00e2 95EDBA8A 		vldr.32	s16, [r5, #744]
 229 00e6 7F2B     		cmp	r3, #127
 230 00e8 99F80030 		ldrb	r3, [r9]	@ zero_extendqisi2
 231 00ec 85F80804 		strb	r0, [r5, #1032]
 232 00f0 08BF     		it	eq
 233 00f2 83F00103 		eoreq	r3, r3, #1
 234 00f6 8AF80010 		strb	r1, [r10]
 235 00fa 9FED355B 		vldr.64	d5, .L52
 236 00fe 89F80030 		strb	r3, [r9]
 237 0102 019B     		ldr	r3, [sp, #4]
ARM GAS  /tmp/ccgJqYU2.s 			page 5


 238 0104 37EE057B 		vadd.f64	d7, d7, d5
 239 0108 36EE056B 		vadd.f64	d6, d6, d5
 240 010c F7EEC78B 		vcvt.f32.f64	s17, d7
 241 0110 B7EEC69B 		vcvt.f32.f64	s18, d6
 242 0114 002B     		cmp	r3, #0
 243 0116 54D0     		beq	.L24
 244 0118 3B1F     		subs	r3, r7, #4
 245 011a 0027     		movs	r7, #0
 246 011c 0393     		str	r3, [sp, #12]
 247 011e A8F10403 		sub	r3, r8, #4
 248 0122 0293     		str	r3, [sp, #8]
 249              	.L40:
 250 0124 BD00     		lsls	r5, r7, #2
 251 0126 DDE90246 		ldrd	r4, r6, [sp, #8]
 252              	.L39:
 253 012a 6368     		ldr	r3, [r4, #4]
 254 012c 04F1040B 		add	fp, r4, #4
 255 0130 2B44     		add	r3, r3, r5
 256 0132 D3ED007A 		vldr.32	s15, [r3]
 257 0136 68EEA77A 		vmul.f32	s15, s17, s15
 258 013a C3ED007A 		vstr.32	s15, [r3]
 259 013e A9B1     		cbz	r1, .L33
 260 0140 99F80030 		ldrb	r3, [r9]	@ zero_extendqisi2
 261 0144 03B3     		cbz	r3, .L34
 262 0146 27EE880A 		vmul.f32	s0, s15, s16
 263              	.L35:
 264 014a B7EE007A 		vmov.f32	s14, #1.0e+0
 265 014e 56F8043F 		ldr	r3, [r6, #4]!
 266 0152 4445     		cmp	r4, r8
 267 0154 2B44     		add	r3, r3, r5
 268 0156 37EE487A 		vsub.f32	s14, s14, s16
 269 015a A7EE270A 		vfma.f32	s0, s14, s15
 270 015e 83ED000A 		vstr.32	s0, [r3]
 271 0162 1DD0     		beq	.L38
 272 0164 5C46     		mov	r4, fp
 273 0166 9AF80010 		ldrb	r1, [r10]	@ zero_extendqisi2
 274 016a DEE7     		b	.L39
 275              	.L33:
 276 016c 27EE890A 		vmul.f32	s0, s15, s18
 277 0170 FFF7FEFF 		bl	_Z8softClipf
 278 0174 6368     		ldr	r3, [r4, #4]
 279 0176 99F80010 		ldrb	r1, [r9]	@ zero_extendqisi2
 280 017a 2B44     		add	r3, r3, r5
 281 017c D3ED007A 		vldr.32	s15, [r3]
 282 0180 21B1     		cbz	r1, .L42
 283              	.L49:
 284 0182 20EE080A 		vmul.f32	s0, s0, s16
 285 0186 E0E7     		b	.L35
 286              	.L34:
 287 0188 27EE890A 		vmul.f32	s0, s15, s18
 288              	.L42:
 289 018c B7EE007A 		vmov.f32	s14, #1.0e+0
 290 0190 B4EEC70A 		vcmpe.f32	s0, s14
 291 0194 F1EE10FA 		vmrs	APSR_nzcv, FPSCR
 292 0198 09DD     		ble	.L51
 293 019a B0EE480A 		vmov.f32	s0, s16
 294 019e D4E7     		b	.L35
ARM GAS  /tmp/ccgJqYU2.s 			page 6


 295              	.L38:
 296 01a0 0137     		adds	r7, r7, #1
 297 01a2 019B     		ldr	r3, [sp, #4]
 298 01a4 BB42     		cmp	r3, r7
 299 01a6 0CD0     		beq	.L24
 300 01a8 9AF80010 		ldrb	r1, [r10]	@ zero_extendqisi2
 301 01ac BAE7     		b	.L40
 302              	.L51:
 303 01ae BFEE007A 		vmov.f32	s14, #-1.0e+0
 304 01b2 B4EEC70A 		vcmpe.f32	s0, s14
 305 01b6 F1EE10FA 		vmrs	APSR_nzcv, FPSCR
 306 01ba E2D5     		bpl	.L49
 307 01bc B1EE480A 		vneg.f32	s0, s16
 308 01c0 C3E7     		b	.L35
 309              	.L24:
 310 01c2 05B0     		add	sp, sp, #20
 311              		@ sp needed
 312 01c4 BDEC048B 		vldm	sp!, {d8-d9}
 313 01c8 BDE8F08F 		pop	{r4, r5, r6, r7, r8, r9, r10, fp, pc}
 314              	.L53:
 315 01cc AFF30080 		.align	3
 316              	.L52:
 317 01d0 33333333 		.word	858993459
 318 01d4 3333F33F 		.word	1072902963
 319 01d8 A4020000 		.word	.LANCHOR0+676
 320 01dc C0020000 		.word	.LANCHOR0+704
 321 01e0 DC020000 		.word	.LANCHOR0+732
 322 01e4 F8020000 		.word	.LANCHOR0+760
 323 01e8 14030000 		.word	.LANCHOR0+788
 324 01ec 30030000 		.word	.LANCHOR0+816
 325 01f0 4C030000 		.word	.LANCHOR0+844
 326 01f4 68030000 		.word	.LANCHOR0+872
 327 01f8 84030000 		.word	.LANCHOR0+900
 328 01fc A0030000 		.word	.LANCHOR0+928
 329 0200 BC030000 		.word	.LANCHOR0+956
 330 0204 D8030000 		.word	.LANCHOR0+984
 331 0208 58020000 		.word	.LANCHOR0+600
 332 020c 68020000 		.word	.LANCHOR0+616
 333 0210 78020000 		.word	.LANCHOR0+632
 334 0214 00000000 		.word	.LANCHOR0
 335 0218 39000000 		.word	.LANCHOR0+57
 336 021c 0000C842 		.word	1120403456
 337 0220 00000000 		.word	.LANCHOR1
 338 0224 00000000 		.word	.LANCHOR2
 340              		.section	.text.startup.main,"ax",%progbits
 341              		.align	1
 342              		.p2align 2,,3
 343              		.global	main
 344              		.syntax unified
 345              		.thumb
 346              		.thumb_func
 347              		.fpu fpv5-d16
 349              	main:
 350              		@ args = 0, pretend = 0, frame = 8
 351              		@ frame_needed = 0, uses_anonymous_args = 0
 352 0000 2DE9F041 		push	{r4, r5, r6, r7, r8, lr}
 353 0004 604C     		ldr	r4, .L91
ARM GAS  /tmp/ccgJqYU2.s 			page 7


 354 0006 84B0     		sub	sp, sp, #16
 355 0008 5F48     		ldr	r0, .L91
 356 000a FFF7FEFF 		bl	_ZN5daisy10DaisyField4InitEv
 357 000e 2046     		mov	r0, r4
 358 0010 FFF7FEFF 		bl	_ZN5daisy10DaisyField15AudioSampleRateEv
 359 0014 5D4E     		ldr	r6, .L91+4
 360 0016 0023     		movs	r3, #0
 361 0018 5D4D     		ldr	r5, .L91+8
 362 001a 5E49     		ldr	r1, .L91+12
 363 001c 2046     		mov	r0, r4
 364 001e 3370     		strb	r3, [r6]
 365 0020 04F14008 		add	r8, r4, #64
 366 0024 2B70     		strb	r3, [r5]
 367 0026 FFF7FEFF 		bl	_ZN5daisy10DaisyField10StartAudioEPFvPPfS2_jE
 368 002a 04F11800 		add	r0, r4, #24
 369 002e 5A4F     		ldr	r7, .L91+16
 370 0030 FFF7FEFF 		bl	_ZN5daisy9AdcHandle5StartEv
 371 0034 3378     		ldrb	r3, [r6]	@ zero_extendqisi2
 372 0036 002B     		cmp	r3, #0
 373 0038 73D0     		beq	.L86
 374              	.L55:
 375 003a 2B78     		ldrb	r3, [r5]	@ zero_extendqisi2
 376 003c 002B     		cmp	r3, #0
 377 003e 40F09480 		bne	.L73
 378 0042 FF21     		movs	r1, #255
 379              	.L65:
 380 0044 626C     		ldr	r2, [r4, #68]
 381 0046 04EB4101 		add	r1, r4, r1, lsl #1
 382 004a 40F6FE7C 		movw	ip, #4094
 383 004e B2F80130 		ldrh	r3, [r2, #1]	@ unaligned
 384 0052 B1F85600 		ldrh	r0, [r1, #86]
 385 0056 C3F30B03 		ubfx	r3, r3, #0, #12
 386 005a 6045     		cmp	r0, ip
 387 005c 03EB0001 		add	r1, r3, r0
 388 0060 C1F30B01 		ubfx	r1, r1, #0, #12
 389 0064 A2F80310 		strh	r1, [r2, #3]	@ unaligned
 390 0068 74D9     		bls	.L87
 391 006a DFED4C7A 		vldr.32	s15, .L91+20
 392              	.L67:
 393 006e 9FED4C7A 		vldr.32	s14, .L91+24
 394 0072 43F48053 		orr	r3, r3, #4096
 395 0076 F4EEC77A 		vcmpe.f32	s15, s14
 396 007a A2F80130 		strh	r3, [r2, #1]	@ unaligned
 397 007e F1EE10FA 		vmrs	APSR_nzcv, FPSCR
 398 0082 6BDD     		ble	.L66
 399 0084 FF23     		movs	r3, #255
 400              	.L57:
 401 0086 B2F80500 		ldrh	r0, [r2, #5]	@ unaligned
 402 008a 04EB4303 		add	r3, r4, r3, lsl #1
 403 008e 40F6FE7E 		movw	lr, #4094
 404 0092 B3F856C0 		ldrh	ip, [r3, #86]
 405 0096 C0F30B03 		ubfx	r3, r0, #0, #12
 406 009a F445     		cmp	ip, lr
 407 009c 0CEB0300 		add	r0, ip, r3
 408 00a0 88BF     		it	hi
 409 00a2 43F48053 		orrhi	r3, r3, #4096
 410 00a6 C0F30B00 		ubfx	r0, r0, #0, #12
ARM GAS  /tmp/ccgJqYU2.s 			page 8


 411 00aa A2F80530 		strh	r3, [r2, #5]	@ unaligned
 412 00ae A2F80700 		strh	r0, [r2, #7]	@ unaligned
 413 00b2 94F95430 		ldrsb	r3, [r4, #84]
 414              	.L59:
 415 00b6 002B     		cmp	r3, #0
 416 00b8 FDDA     		bge	.L59
 417 00ba D4F848C0 		ldr	ip, [r4, #72]
 418 00be 0023     		movs	r3, #0
 419 00c0 A264     		str	r2, [r4, #72]
 420 00c2 1846     		mov	r0, r3
 421 00c4 C4F844C0 		str	ip, [r4, #68]
 422 00c8 02E0     		b	.L61
 423              	.L88:
 424 00ca B1F80310 		ldrh	r1, [r1, #3]	@ unaligned
 425 00ce 9800     		lsls	r0, r3, #2
 426              	.L61:
 427 00d0 0133     		adds	r3, r3, #1
 428 00d2 6044     		add	r0, r0, ip
 429 00d4 102B     		cmp	r3, #16
 430 00d6 A0F80310 		strh	r1, [r0, #3]	@ unaligned
 431 00da 02EB8301 		add	r1, r2, r3, lsl #2
 432 00de F4D1     		bne	.L88
 433 00e0 0023     		movs	r3, #0
 434              	.L60:
 435 00e2 02EB8300 		add	r0, r2, r3, lsl #2
 436 00e6 0CEB8301 		add	r1, ip, r3, lsl #2
 437 00ea 0133     		adds	r3, r3, #1
 438 00ec B0F84400 		ldrh	r0, [r0, #68]	@ unaligned
 439 00f0 102B     		cmp	r3, #16
 440 00f2 A1F84400 		strh	r0, [r1, #68]	@ unaligned
 441 00f6 F4D1     		bne	.L60
 442 00f8 94F84C10 		ldrb	r1, [r4, #76]	@ zero_extendqisi2
 443 00fc 4FF0000C 		mov	ip, #0
 444 0100 4123     		movs	r3, #65
 445 0102 2848     		ldr	r0, .L91+28
 446 0104 41F04001 		orr	r1, r1, #64
 447 0108 84F854C0 		strb	ip, [r4, #84]
 448 010c CDE90078 		strd	r7, r8, [sp]
 449 0110 FFF7FEFF 		bl	_ZN5daisy9I2CHandle11TransmitDmaEtPhtPFvPvNS0_6ResultEES2_
 450 0114 78BB     		cbnz	r0, .L89
 451              	.L62:
 452 0116 0620     		movs	r0, #6
 453 0118 FFF7FEFF 		bl	dsy_system_delay
 454 011c 3378     		ldrb	r3, [r6]	@ zero_extendqisi2
 455 011e 002B     		cmp	r3, #0
 456 0120 8BD1     		bne	.L55
 457              	.L86:
 458 0122 2978     		ldrb	r1, [r5]	@ zero_extendqisi2
 459 0124 0029     		cmp	r1, #0
 460 0126 8DD0     		beq	.L65
 461              	.L64:
 462 0128 626C     		ldr	r2, [r4, #68]
 463 012a 04EB4301 		add	r1, r4, r3, lsl #1
 464 012e 40F6FE7C 		movw	ip, #4094
 465 0132 B2F80130 		ldrh	r3, [r2, #1]	@ unaligned
 466 0136 B1F85600 		ldrh	r0, [r1, #86]
 467 013a C3F30B03 		ubfx	r3, r3, #0, #12
ARM GAS  /tmp/ccgJqYU2.s 			page 9


 468 013e 6045     		cmp	r0, ip
 469 0140 03EB0001 		add	r1, r3, r0
 470 0144 C1F30B01 		ubfx	r1, r1, #0, #12
 471 0148 A2F80310 		strh	r1, [r2, #3]	@ unaligned
 472 014c 0FD9     		bls	.L90
 473 014e DFED167A 		vldr.32	s15, .L91+32
 474 0152 8CE7     		b	.L67
 475              	.L87:
 476 0154 DFED117A 		vldr.32	s15, .L91+20
 477 0158 A2F80130 		strh	r3, [r2, #1]	@ unaligned
 478              	.L66:
 479 015c FCEEE77A 		vcvt.u32.f32	s15, s15
 480 0160 CDED037A 		vstr.32	s15, [sp, #12]	@ int
 481 0164 9DF80C30 		ldrb	r3, [sp, #12]	@ zero_extendqisi2
 482 0168 8DE7     		b	.L57
 483              	.L73:
 484 016a FF23     		movs	r3, #255
 485 016c DCE7     		b	.L64
 486              	.L90:
 487 016e A2F80130 		strh	r3, [r2, #1]	@ unaligned
 488 0172 FF23     		movs	r3, #255
 489 0174 87E7     		b	.L57
 490              	.L89:
 491 0176 0B48     		ldr	r0, .L91+28
 492 0178 FFF7FEFF 		bl	_ZNK5daisy9I2CHandle9GetConfigEv
 493 017c 0146     		mov	r1, r0
 494 017e 0948     		ldr	r0, .L91+28
 495 0180 FFF7FEFF 		bl	_ZN5daisy9I2CHandle4InitERKNS0_6ConfigE
 496 0184 C7E7     		b	.L62
 497              	.L92:
 498 0186 00BF     		.align	2
 499              	.L91:
 500 0188 00000000 		.word	.LANCHOR0
 501 018c 00000000 		.word	.LANCHOR1
 502 0190 00000000 		.word	.LANCHOR2
 503 0194 00000000 		.word	_ZL13AudioCallbackPPfS0_j
 504 0198 00000000 		.word	_ZN5daisy16LedDriverPca9685ILi2ELb1EE14TxCpltCallbackEPvNS_9I2CHandle6ResultE
 505 019c 00000000 		.word	0
 506 01a0 00007F43 		.word	1132396544
 507 01a4 40000000 		.word	.LANCHOR0+64
 508 01a8 00017E47 		.word	1199440128
 510              		.section	.text.startup._GLOBAL__sub_I_hw,"ax",%progbits
 511              		.align	1
 512              		.p2align 2,,3
 513              		.syntax unified
 514              		.thumb
 515              		.thumb_func
 516              		.fpu fpv5-d16
 518              	_GLOBAL__sub_I_hw:
 519              		@ args = 0, pretend = 0, frame = 0
 520              		@ frame_needed = 0, uses_anonymous_args = 0
 521 0000 10B5     		push	{r4, lr}
 522 0002 094C     		ldr	r4, .L95
 523 0004 0023     		movs	r3, #0
 524 0006 4FF40072 		mov	r2, #512
 525 000a 0849     		ldr	r1, .L95+4
 526 000c 04F15600 		add	r0, r4, #86
ARM GAS  /tmp/ccgJqYU2.s 			page 10


 527 0010 6361     		str	r3, [r4, #20]
 528 0012 2364     		str	r3, [r4, #64]
 529 0014 FFF7FEFF 		bl	memcpy
 530 0018 2046     		mov	r0, r4
 531 001a 054A     		ldr	r2, .L95+8
 532 001c 0549     		ldr	r1, .L95+12
 533 001e BDE81040 		pop	{r4, lr}
 534 0022 FFF7FEBF 		b	__aeabi_atexit
 535              	.L96:
 536 0026 00BF     		.align	2
 537              	.L95:
 538 0028 00000000 		.word	.LANCHOR0
 539 002c 00000000 		.word	.LANCHOR3
 540 0030 00000000 		.word	__dso_handle
 541 0034 00000000 		.word	_ZN5daisy10DaisyFieldD1Ev
 543              		.section	.init_array,"aw",%init_array
 544              		.align	2
 545 0000 00000000 		.word	_GLOBAL__sub_I_hw(target1)
 546              		.global	bypassSoft
 547              		.global	bypassHard
 548              		.global	hw
 549              		.section	.rodata
 550              		.align	2
 551              		.set	.LANCHOR3,. + 0
 552              	.LC0:
 553 0000 0000     		.short	0
 554 0002 0100     		.short	1
 555 0004 0100     		.short	1
 556 0006 0100     		.short	1
 557 0008 0100     		.short	1
 558 000a 0100     		.short	1
 559 000c 0100     		.short	1
 560 000e 0100     		.short	1
 561 0010 0100     		.short	1
 562 0012 0100     		.short	1
 563 0014 0100     		.short	1
 564 0016 0100     		.short	1
 565 0018 0200     		.short	2
 566 001a 0200     		.short	2
 567 001c 0200     		.short	2
 568 001e 0200     		.short	2
 569 0020 0200     		.short	2
 570 0022 0200     		.short	2
 571 0024 0200     		.short	2
 572 0026 0300     		.short	3
 573 0028 0300     		.short	3
 574 002a 0400     		.short	4
 575 002c 0400     		.short	4
 576 002e 0500     		.short	5
 577 0030 0500     		.short	5
 578 0032 0600     		.short	6
 579 0034 0700     		.short	7
 580 0036 0800     		.short	8
 581 0038 0800     		.short	8
 582 003a 0900     		.short	9
 583 003c 0A00     		.short	10
 584 003e 0B00     		.short	11
ARM GAS  /tmp/ccgJqYU2.s 			page 11


 585 0040 0C00     		.short	12
 586 0042 0D00     		.short	13
 587 0044 0F00     		.short	15
 588 0046 1000     		.short	16
 589 0048 1100     		.short	17
 590 004a 1200     		.short	18
 591 004c 1400     		.short	20
 592 004e 1500     		.short	21
 593 0050 1700     		.short	23
 594 0052 1900     		.short	25
 595 0054 1A00     		.short	26
 596 0056 1C00     		.short	28
 597 0058 1E00     		.short	30
 598 005a 2000     		.short	32
 599 005c 2200     		.short	34
 600 005e 2400     		.short	36
 601 0060 2600     		.short	38
 602 0062 2800     		.short	40
 603 0064 2B00     		.short	43
 604 0066 2D00     		.short	45
 605 0068 3000     		.short	48
 606 006a 3200     		.short	50
 607 006c 3500     		.short	53
 608 006e 3800     		.short	56
 609 0070 3B00     		.short	59
 610 0072 3E00     		.short	62
 611 0074 4100     		.short	65
 612 0076 4400     		.short	68
 613 0078 4700     		.short	71
 614 007a 4B00     		.short	75
 615 007c 4E00     		.short	78
 616 007e 5200     		.short	82
 617 0080 5500     		.short	85
 618 0082 5900     		.short	89
 619 0084 5D00     		.short	93
 620 0086 6100     		.short	97
 621 0088 6500     		.short	101
 622 008a 6900     		.short	105
 623 008c 6E00     		.short	110
 624 008e 7200     		.short	114
 625 0090 7700     		.short	119
 626 0092 7B00     		.short	123
 627 0094 8000     		.short	128
 628 0096 8500     		.short	133
 629 0098 8A00     		.short	138
 630 009a 8F00     		.short	143
 631 009c 9500     		.short	149
 632 009e 9A00     		.short	154
 633 00a0 9F00     		.short	159
 634 00a2 A500     		.short	165
 635 00a4 AB00     		.short	171
 636 00a6 B100     		.short	177
 637 00a8 B700     		.short	183
 638 00aa BD00     		.short	189
 639 00ac C300     		.short	195
 640 00ae CA00     		.short	202
 641 00b0 D000     		.short	208
ARM GAS  /tmp/ccgJqYU2.s 			page 12


 642 00b2 D700     		.short	215
 643 00b4 DE00     		.short	222
 644 00b6 E500     		.short	229
 645 00b8 EC00     		.short	236
 646 00ba F300     		.short	243
 647 00bc FA00     		.short	250
 648 00be 0201     		.short	258
 649 00c0 0A01     		.short	266
 650 00c2 1101     		.short	273
 651 00c4 1901     		.short	281
 652 00c6 2201     		.short	290
 653 00c8 2A01     		.short	298
 654 00ca 3201     		.short	306
 655 00cc 3B01     		.short	315
 656 00ce 4401     		.short	324
 657 00d0 4C01     		.short	332
 658 00d2 5501     		.short	341
 659 00d4 5F01     		.short	351
 660 00d6 6801     		.short	360
 661 00d8 7101     		.short	369
 662 00da 7B01     		.short	379
 663 00dc 8501     		.short	389
 664 00de 8F01     		.short	399
 665 00e0 9901     		.short	409
 666 00e2 A301     		.short	419
 667 00e4 AE01     		.short	430
 668 00e6 B801     		.short	440
 669 00e8 C301     		.short	451
 670 00ea CE01     		.short	462
 671 00ec D901     		.short	473
 672 00ee E501     		.short	485
 673 00f0 F001     		.short	496
 674 00f2 FC01     		.short	508
 675 00f4 0802     		.short	520
 676 00f6 1402     		.short	532
 677 00f8 2002     		.short	544
 678 00fa 2C02     		.short	556
 679 00fc 3902     		.short	569
 680 00fe 4602     		.short	582
 681 0100 5202     		.short	594
 682 0102 6002     		.short	608
 683 0104 6D02     		.short	621
 684 0106 7A02     		.short	634
 685 0108 8802     		.short	648
 686 010a 9602     		.short	662
 687 010c A402     		.short	676
 688 010e B202     		.short	690
 689 0110 C002     		.short	704
 690 0112 CF02     		.short	719
 691 0114 DE02     		.short	734
 692 0116 ED02     		.short	749
 693 0118 FC02     		.short	764
 694 011a 0B03     		.short	779
 695 011c 1B03     		.short	795
 696 011e 2B03     		.short	811
 697 0120 3B03     		.short	827
 698 0122 4B03     		.short	843
ARM GAS  /tmp/ccgJqYU2.s 			page 13


 699 0124 5B03     		.short	859
 700 0126 6C03     		.short	876
 701 0128 7D03     		.short	893
 702 012a 8E03     		.short	910
 703 012c 9F03     		.short	927
 704 012e B003     		.short	944
 705 0130 C203     		.short	962
 706 0132 D403     		.short	980
 707 0134 E603     		.short	998
 708 0136 F803     		.short	1016
 709 0138 0A04     		.short	1034
 710 013a 1D04     		.short	1053
 711 013c 3004     		.short	1072
 712 013e 4304     		.short	1091
 713 0140 5604     		.short	1110
 714 0142 6A04     		.short	1130
 715 0144 7E04     		.short	1150
 716 0146 9204     		.short	1170
 717 0148 A604     		.short	1190
 718 014a BA04     		.short	1210
 719 014c CF04     		.short	1231
 720 014e E404     		.short	1252
 721 0150 F904     		.short	1273
 722 0152 0E05     		.short	1294
 723 0154 2405     		.short	1316
 724 0156 3A05     		.short	1338
 725 0158 5005     		.short	1360
 726 015a 6605     		.short	1382
 727 015c 7C05     		.short	1404
 728 015e 9305     		.short	1427
 729 0160 AA05     		.short	1450
 730 0162 C105     		.short	1473
 731 0164 D905     		.short	1497
 732 0166 F005     		.short	1520
 733 0168 0806     		.short	1544
 734 016a 2006     		.short	1568
 735 016c 3906     		.short	1593
 736 016e 5106     		.short	1617
 737 0170 6A06     		.short	1642
 738 0172 8306     		.short	1667
 739 0174 9D06     		.short	1693
 740 0176 B606     		.short	1718
 741 0178 D006     		.short	1744
 742 017a EA06     		.short	1770
 743 017c 0507     		.short	1797
 744 017e 1F07     		.short	1823
 745 0180 3A07     		.short	1850
 746 0182 5507     		.short	1877
 747 0184 7107     		.short	1905
 748 0186 8C07     		.short	1932
 749 0188 A807     		.short	1960
 750 018a C407     		.short	1988
 751 018c E107     		.short	2017
 752 018e FD07     		.short	2045
 753 0190 1A08     		.short	2074
 754 0192 3708     		.short	2103
 755 0194 5508     		.short	2133
ARM GAS  /tmp/ccgJqYU2.s 			page 14


 756 0196 7208     		.short	2162
 757 0198 9008     		.short	2192
 758 019a AF08     		.short	2223
 759 019c CD08     		.short	2253
 760 019e EC08     		.short	2284
 761 01a0 0B09     		.short	2315
 762 01a2 2A09     		.short	2346
 763 01a4 4A09     		.short	2378
 764 01a6 6A09     		.short	2410
 765 01a8 8A09     		.short	2442
 766 01aa AA09     		.short	2474
 767 01ac CB09     		.short	2507
 768 01ae EC09     		.short	2540
 769 01b0 0D0A     		.short	2573
 770 01b2 2E0A     		.short	2606
 771 01b4 500A     		.short	2640
 772 01b6 720A     		.short	2674
 773 01b8 940A     		.short	2708
 774 01ba B70A     		.short	2743
 775 01bc DA0A     		.short	2778
 776 01be FD0A     		.short	2813
 777 01c0 210B     		.short	2849
 778 01c2 440B     		.short	2884
 779 01c4 680B     		.short	2920
 780 01c6 8D0B     		.short	2957
 781 01c8 B10B     		.short	2993
 782 01ca D60B     		.short	3030
 783 01cc FB0B     		.short	3067
 784 01ce 210C     		.short	3105
 785 01d0 470C     		.short	3143
 786 01d2 6D0C     		.short	3181
 787 01d4 930C     		.short	3219
 788 01d6 BA0C     		.short	3258
 789 01d8 E10C     		.short	3297
 790 01da 080D     		.short	3336
 791 01dc 300D     		.short	3376
 792 01de 580D     		.short	3416
 793 01e0 800D     		.short	3456
 794 01e2 A80D     		.short	3496
 795 01e4 D10D     		.short	3537
 796 01e6 FA0D     		.short	3578
 797 01e8 230E     		.short	3619
 798 01ea 4D0E     		.short	3661
 799 01ec 770E     		.short	3703
 800 01ee A10E     		.short	3745
 801 01f0 CC0E     		.short	3788
 802 01f2 F70E     		.short	3831
 803 01f4 220F     		.short	3874
 804 01f6 4E0F     		.short	3918
 805 01f8 7A0F     		.short	3962
 806 01fa A60F     		.short	4006
 807 01fc D20F     		.short	4050
 808 01fe FF0F     		.short	4095
 809              		.section	.bss.bypassHard,"aw",%nobits
 810              		.set	.LANCHOR2,. + 0
 813              	bypassHard:
 814 0000 00       		.space	1
ARM GAS  /tmp/ccgJqYU2.s 			page 15


 815              		.section	.bss.bypassSoft,"aw",%nobits
 816              		.set	.LANCHOR1,. + 0
 819              	bypassSoft:
 820 0000 00       		.space	1
 821              		.section	.bss.hw,"aw",%nobits
 822              		.align	2
 823              		.set	.LANCHOR0,. + 0
 826              	hw:
 827 0000 00000000 		.space	1036
 827      00000000 
 827      00000000 
 827      00000000 
 827      00000000 
 828              		.hidden	__dso_handle
 829              		.ident	"GCC: (GNU Arm Embedded Toolchain 9-2020-q2-update) 9.3.1 20200408 (release)"
ARM GAS  /tmp/ccgJqYU2.s 			page 16


DEFINED SYMBOLS
                            *ABS*:0000000000000000 main.cpp
     /tmp/ccgJqYU2.s:15     .text._ZN5daisy10DaisyFieldD2Ev:0000000000000000 $t
     /tmp/ccgJqYU2.s:24     .text._ZN5daisy10DaisyFieldD2Ev:0000000000000000 _ZN5daisy10DaisyFieldD2Ev
     /tmp/ccgJqYU2.s:24     .text._ZN5daisy10DaisyFieldD2Ev:0000000000000000 _ZN5daisy10DaisyFieldD1Ev
     /tmp/ccgJqYU2.s:33     .text._ZN5daisy16LedDriverPca9685ILi2ELb1EE14TxCpltCallbackEPvNS_9I2CHandle6ResultE:0000000000000000 $t
     /tmp/ccgJqYU2.s:41     .text._ZN5daisy16LedDriverPca9685ILi2ELb1EE14TxCpltCallbackEPvNS_9I2CHandle6ResultE:0000000000000000 _ZN5daisy16LedDriverPca9685ILi2ELb1EE14TxCpltCallbackEPvNS_9I2CHandle6ResultE
     /tmp/ccgJqYU2.s:84     .text._ZN5daisy16LedDriverPca9685ILi2ELb1EE14TxCpltCallbackEPvNS_9I2CHandle6ResultE:0000000000000050 $d
     /tmp/ccgJqYU2.s:87     .text._Z8hardClipf:0000000000000000 $t
     /tmp/ccgJqYU2.s:95     .text._Z8hardClipf:0000000000000000 _Z8hardClipf
     /tmp/ccgJqYU2.s:114    .text._Z8softClipf:0000000000000000 $t
     /tmp/ccgJqYU2.s:122    .text._Z8softClipf:0000000000000000 _Z8softClipf
     /tmp/ccgJqYU2.s:141    .text._ZL13AudioCallbackPPfS0_j:0000000000000000 $t
     /tmp/ccgJqYU2.s:148    .text._ZL13AudioCallbackPPfS0_j:0000000000000000 _ZL13AudioCallbackPPfS0_j
     /tmp/ccgJqYU2.s:317    .text._ZL13AudioCallbackPPfS0_j:00000000000001d0 $d
     /tmp/ccgJqYU2.s:341    .text.startup.main:0000000000000000 $t
     /tmp/ccgJqYU2.s:349    .text.startup.main:0000000000000000 main
     /tmp/ccgJqYU2.s:500    .text.startup.main:0000000000000188 $d
     /tmp/ccgJqYU2.s:511    .text.startup._GLOBAL__sub_I_hw:0000000000000000 $t
     /tmp/ccgJqYU2.s:518    .text.startup._GLOBAL__sub_I_hw:0000000000000000 _GLOBAL__sub_I_hw
     /tmp/ccgJqYU2.s:538    .text.startup._GLOBAL__sub_I_hw:0000000000000028 $d
     /tmp/ccgJqYU2.s:544    .init_array:0000000000000000 $d
     /tmp/ccgJqYU2.s:819    .bss.bypassSoft:0000000000000000 bypassSoft
     /tmp/ccgJqYU2.s:813    .bss.bypassHard:0000000000000000 bypassHard
     /tmp/ccgJqYU2.s:826    .bss.hw:0000000000000000 hw
     /tmp/ccgJqYU2.s:550    .rodata:0000000000000000 $d
     /tmp/ccgJqYU2.s:814    .bss.bypassHard:0000000000000000 $d
     /tmp/ccgJqYU2.s:820    .bss.bypassSoft:0000000000000000 $d
     /tmp/ccgJqYU2.s:822    .bss.hw:0000000000000000 $d
                           .group:0000000000000000 _ZN5daisy10DaisyFieldD5Ev

UNDEFINED SYMBOLS
_ZN5daisy9I2CHandle11TransmitDmaEtPhtPFvPvNS0_6ResultEES2_
_ZNK5daisy9I2CHandle9GetConfigEv
_ZN5daisy9I2CHandle4InitERKNS0_6ConfigE
expf
_ZN5daisy13AnalogControl7ProcessEv
_ZN5daisy6Switch8DebounceEv
dsy_sr_4021_update
dsy_sr_4021_state
_ZN5daisy6GateIn4TrigEv
_ZN5daisy10DaisyField4InitEv
_ZN5daisy10DaisyField15AudioSampleRateEv
_ZN5daisy10DaisyField10StartAudioEPFvPPfS2_jE
_ZN5daisy9AdcHandle5StartEv
dsy_system_delay
memcpy
__aeabi_atexit
__dso_handle
